target datalayout = "e-m:e-p270:32:32-p271:32:32-p272:64:64-i64:64-i128:128-f80:128-n8:16:32:64-S128"
target triple = "x86_64-pc-linux-gnu"

%struct._zend_executor_globals = type { %struct._zval_struct, %struct._zval_struct, [32 x ptr], ptr, ptr, %struct._zend_array, %struct._zend_array, ptr, i32, i32, ptr, ptr, ptr, ptr, ptr, ptr, i64, ptr, ptr, i32, i32, i64, i32, i32, i32, i8, i8, %struct.zend_atomic_bool_s, %struct.zend_atomic_bool_s, ptr, i64, ptr, ptr, %struct._zend_array, %struct._zend_array, i32, i8, %struct._zval_struct, %struct._zval_struct, %struct._zend_stack, %struct._zend_stack, %struct._zend_stack, ptr, i32, i32, i64, ptr, ptr, ptr, %struct._zend_objects_store, ptr, ptr, ptr, [3 x %struct._zend_op], ptr, i8, i8, i64, i32, i32, ptr, [16 x %struct._HashTableIterator], ptr, %union._zend_function, %struct._zend_op, %struct._zend_array, i64, %struct.zend_get_gc_buffer, ptr, ptr, ptr, i64, i8, i32, ptr, ptr, i64, %struct._zend_call_stack, i64, i64, [6 x ptr] }
%struct.zend_atomic_bool_s = type { i8 }
%struct._zval_struct = type { %union._zend_value, %union.anon.0, %union.anon.3 }
%union._zend_value = type { i64 }
%union.anon.0 = type { i32 }
%union.anon.3 = type { i32 }
%struct._zend_stack = type { i32, i32, i32, ptr }
%struct._zend_objects_store = type { ptr, i32, i32, i32 }
%struct._HashTableIterator = type { ptr, i32, i32 }
%union._zend_function = type { %struct._zend_op_array }
%struct._zend_op_array = type { i8, [3 x i8], i32, ptr, ptr, ptr, i32, i32, ptr, ptr, ptr, ptr, i32, i32, i32, i32, ptr, ptr, ptr, ptr, ptr, i32, i32, ptr, ptr, ptr, i32, i32, i32, i32, ptr, ptr, [6 x ptr] }
%struct._zend_op = type { ptr, %union._znode_op, %union._znode_op, %union._znode_op, i32, i32, i8, i8, i8, i8 }
%union._znode_op = type { i32 }
%struct._zend_array = type { %struct._zend_refcounted_h, %union.anon.4, i32, %union.anon.6, i32, i32, i32, i32, i64, ptr }
%struct._zend_refcounted_h = type { i32, %union.anon }
%union.anon = type { i32 }
%union.anon.4 = type { i32 }
%union.anon.6 = type { ptr }
%struct.zend_get_gc_buffer = type { ptr, ptr, ptr }
%struct._zend_call_stack = type { ptr, i64 }
%struct._zend_string = type { %struct._zend_refcounted_h, i64, i64, [1 x i8] }
%struct._dom_object = type { ptr, ptr, ptr, %struct._zend_object }
%struct._zend_object = type { %struct._zend_refcounted_h, i32, ptr, ptr, ptr, [1 x %struct._zval_struct] }
%struct._zend_execute_data = type { ptr, ptr, ptr, ptr, %struct._zval_struct, ptr, ptr, ptr, ptr }
%struct._zend_class_entry = type { i8, ptr, %union.anon.8, i32, i32, i32, i32, ptr, ptr, ptr, %struct._zend_array, %struct._zend_array, %struct._zend_array, ptr, ptr, ptr, ptr, ptr, ptr, ptr, ptr, ptr, ptr, ptr, ptr, ptr, ptr, ptr, ptr, ptr, ptr, ptr, %union.anon.9, ptr, ptr, ptr, ptr, i32, i32, %union.anon.10, ptr, ptr, ptr, ptr, i32, ptr, ptr, %union.anon.11 }
%union.anon.8 = type { ptr }
%union.anon.9 = type { ptr }
%union.anon.10 = type { ptr }
%union.anon.11 = type { %struct.anon.12 }
%struct.anon.12 = type { ptr, i32, i32 }
%struct._php_libxml_node_ptr = type { ptr, i32, ptr }

@dom_node_class_entry = external global ptr, align 8
@executor_globals = external global %struct._zend_executor_globals, align 8
@.str.11 = private unnamed_addr constant [18 x i8] c"Couldn't fetch %s\00", align 1
@.str.18 = private unnamed_addr constant [3 x i8] c"O!\00", align 1

; Function Attrs: nounwind uwtable
define internal ptr @php_dom_obj_from_obj(ptr noundef %0) #0 {
  %2 = alloca ptr, align 8
  store ptr %0, ptr %2, align 8
  %3 = load ptr, ptr %2, align 8
  %4 = getelementptr inbounds i8, ptr %3, i64 -24
  ret ptr %4
}

; Function Attrs: nounwind uwtable
define hidden void @zim_DOMNode_isEqualNode(ptr noundef %0, ptr noundef %1) #0 {
  %3 = alloca ptr, align 8
  %4 = alloca ptr, align 8
  %5 = alloca ptr, align 8
  %6 = alloca ptr, align 8
  %7 = alloca ptr, align 8
  %8 = alloca ptr, align 8
  %9 = alloca ptr, align 8
  store ptr %0, ptr %3, align 8
  store ptr %1, ptr %4, align 8
  %10 = load ptr, ptr %3, align 8
  %11 = getelementptr inbounds %struct._zend_execute_data, ptr %10, i32 0, i32 4
  store ptr %11, ptr %5, align 8
  %12 = load ptr, ptr %3, align 8
  %13 = getelementptr inbounds %struct._zend_execute_data, ptr %12, i32 0, i32 4
  %14 = getelementptr inbounds %struct._zval_struct, ptr %13, i32 0, i32 2
  %15 = load i32, ptr %14, align 4
  %16 = load ptr, ptr @dom_node_class_entry, align 8
  %17 = call i32 (i32, ptr, ...) @zend_parse_parameters(i32 noundef %15, ptr noundef @.str.18, ptr noundef %6, ptr noundef %16)
  %18 = icmp eq i32 %17, -1
  br i1 %18, label %19, label %24

19:                                               ; preds = %2
  br label %20

20:                                               ; preds = %19
  %21 = load ptr, ptr getelementptr inbounds (%struct._zend_executor_globals, ptr @executor_globals, i32 0, i32 50), align 8
  %22 = icmp ne ptr %21, null
  call void @llvm.assume(i1 %22)
  br label %149

23:                                               ; No predecessors!
  br label %24

24:                                               ; preds = %23, %2
  %25 = load ptr, ptr %6, align 8
  %26 = icmp eq ptr %25, null
  br i1 %26, label %27, label %34

27:                                               ; preds = %24
  br label %28

28:                                               ; preds = %27
  br label %29

29:                                               ; preds = %28
  %30 = load ptr, ptr %4, align 8
  %31 = getelementptr inbounds %struct._zval_struct, ptr %30, i32 0, i32 1
  store i32 2, ptr %31, align 8
  br label %32

32:                                               ; preds = %29
  br label %149

33:                                               ; No predecessors!
  br label %34

34:                                               ; preds = %33, %24
  %35 = load ptr, ptr %3, align 8
  %36 = getelementptr inbounds %struct._zend_execute_data, ptr %35, i32 0, i32 4
  store ptr %36, ptr %5, align 8
  %37 = load ptr, ptr %5, align 8
  %38 = getelementptr inbounds %struct._zval_struct, ptr %37, i32 0, i32 0
  %39 = load ptr, ptr %38, align 8
  %40 = call ptr @php_dom_obj_from_obj(ptr noundef %39)
  store ptr %40, ptr %9, align 8
  %41 = load ptr, ptr %9, align 8
  %42 = getelementptr inbounds %struct._dom_object, ptr %41, i32 0, i32 0
  %43 = load ptr, ptr %42, align 8
  %44 = icmp eq ptr %43, null
  %45 = xor i1 %44, true
  %46 = xor i1 %45, true
  %47 = zext i1 %46 to i32
  %48 = sext i32 %47 to i64
  %49 = icmp ne i64 %48, 0
  br i1 %49, label %50, label %63

50:                                               ; preds = %34
  %51 = load ptr, ptr %9, align 8
  %52 = getelementptr inbounds %struct._dom_object, ptr %51, i32 0, i32 3
  %53 = getelementptr inbounds %struct._zend_object, ptr %52, i32 0, i32 2
  %54 = load ptr, ptr %53, align 8
  %55 = getelementptr inbounds %struct._zend_class_entry, ptr %54, i32 0, i32 1
  %56 = load ptr, ptr %55, align 8
  %57 = getelementptr inbounds %struct._zend_string, ptr %56, i32 0, i32 3
  %58 = getelementptr inbounds [1 x i8], ptr %57, i64 0, i64 0
  call void (ptr, ptr, ...) @zend_throw_error(ptr noundef null, ptr noundef @.str.11, ptr noundef %58)
  br label %59

59:                                               ; preds = %50
  %60 = load ptr, ptr getelementptr inbounds (%struct._zend_executor_globals, ptr @executor_globals, i32 0, i32 50), align 8
  %61 = icmp ne ptr %60, null
  call void @llvm.assume(i1 %61)
  br label %149

62:                                               ; No predecessors!
  br label %63

63:                                               ; preds = %62, %34
  %64 = load ptr, ptr %9, align 8
  %65 = getelementptr inbounds %struct._dom_object, ptr %64, i32 0, i32 0
  %66 = load ptr, ptr %65, align 8
  %67 = getelementptr inbounds %struct._php_libxml_node_ptr, ptr %66, i32 0, i32 0
  %68 = load ptr, ptr %67, align 8
  store ptr %68, ptr %8, align 8
  %69 = load ptr, ptr %6, align 8
  %70 = getelementptr inbounds %struct._zval_struct, ptr %69, i32 0, i32 0
  %71 = load ptr, ptr %70, align 8
  %72 = call ptr @php_dom_obj_from_obj(ptr noundef %71)
  store ptr %72, ptr %9, align 8
  %73 = load ptr, ptr %9, align 8
  %74 = getelementptr inbounds %struct._dom_object, ptr %73, i32 0, i32 0
  %75 = load ptr, ptr %74, align 8
  %76 = icmp eq ptr %75, null
  %77 = xor i1 %76, true
  %78 = xor i1 %77, true
  %79 = zext i1 %78 to i32
  %80 = sext i32 %79 to i64
  %81 = icmp ne i64 %80, 0
  br i1 %81, label %82, label %95

82:                                               ; preds = %63
  %83 = load ptr, ptr %9, align 8
  %84 = getelementptr inbounds %struct._dom_object, ptr %83, i32 0, i32 3
  %85 = getelementptr inbounds %struct._zend_object, ptr %84, i32 0, i32 2
  %86 = load ptr, ptr %85, align 8
  %87 = getelementptr inbounds %struct._zend_class_entry, ptr %86, i32 0, i32 1
  %88 = load ptr, ptr %87, align 8
  %89 = getelementptr inbounds %struct._zend_string, ptr %88, i32 0, i32 3
  %90 = getelementptr inbounds [1 x i8], ptr %89, i64 0, i64 0
  call void (ptr, ptr, ...) @zend_throw_error(ptr noundef null, ptr noundef @.str.11, ptr noundef %90)
  br label %91

91:                                               ; preds = %82
  %92 = load ptr, ptr getelementptr inbounds (%struct._zend_executor_globals, ptr @executor_globals, i32 0, i32 50), align 8
  %93 = icmp ne ptr %92, null
  call void @llvm.assume(i1 %93)
  br label %149

94:                                               ; No predecessors!
  br label %95

95:                                               ; preds = %94, %63
  %96 = load ptr, ptr %9, align 8
  %97 = getelementptr inbounds %struct._dom_object, ptr %96, i32 0, i32 0
  %98 = load ptr, ptr %97, align 8
  %99 = getelementptr inbounds %struct._php_libxml_node_ptr, ptr %98, i32 0, i32 0
  %100 = load ptr, ptr %99, align 8
  store ptr %100, ptr %7, align 8
  %101 = load ptr, ptr %8, align 8
  %102 = load ptr, ptr %7, align 8
  %103 = icmp eq ptr %101, %102
  br i1 %103, label %104, label %111

104:                                              ; preds = %95
  br label %105

105:                                              ; preds = %104
  br label %106

106:                                              ; preds = %105
  %107 = load ptr, ptr %4, align 8
  %108 = getelementptr inbounds %struct._zval_struct, ptr %107, i32 0, i32 1
  store i32 3, ptr %108, align 8
  br label %109

109:                                              ; preds = %106
  br label %149

110:                                              ; No predecessors!
  br label %111

111:                                              ; preds = %110, %95
  %112 = load ptr, ptr %8, align 8
  %113 = icmp eq ptr %112, null
  br i1 %113, label %117, label %114

114:                                              ; preds = %111
  %115 = load ptr, ptr %7, align 8
  %116 = icmp eq ptr %115, null
  br label %117

117:                                              ; preds = %114, %111
  %118 = phi i1 [ true, %111 ], [ %116, %114 ]
  %119 = xor i1 %118, true
  %120 = xor i1 %119, true
  %121 = zext i1 %120 to i32
  %122 = sext i32 %121 to i64
  %123 = icmp ne i64 %122, 0
  br i1 %123, label %124, label %139

124:                                              ; preds = %117
  br label %125

125:                                              ; preds = %124
  br label %126

126:                                              ; preds = %125
  %127 = load ptr, ptr %8, align 8
  %128 = icmp eq ptr %127, null
  br i1 %128, label %129, label %132

129:                                              ; preds = %126
  %130 = load ptr, ptr %7, align 8
  %131 = icmp eq ptr %130, null
  br label %132

132:                                              ; preds = %129, %126
  %133 = phi i1 [ false, %126 ], [ %131, %129 ]
  %134 = select i1 %133, i32 3, i32 2
  %135 = load ptr, ptr %4, align 8
  %136 = getelementptr inbounds %struct._zval_struct, ptr %135, i32 0, i32 1
  store i32 %134, ptr %136, align 8
  br label %137

137:                                              ; preds = %132
  br label %149

138:                                              ; No predecessors!
  br label %139

139:                                              ; preds = %138, %117
  br label %140

140:                                              ; preds = %139
  br label %141

141:                                              ; preds = %140
  %142 = load ptr, ptr %8, align 8
  %143 = load ptr, ptr %7, align 8
  %144 = call zeroext i1 @php_dom_node_is_equal_node(ptr noundef %142, ptr noundef %143)
  %145 = select i1 %144, i32 3, i32 2
  %146 = load ptr, ptr %4, align 8
  %147 = getelementptr inbounds %struct._zval_struct, ptr %146, i32 0, i32 1
  store i32 %145, ptr %147, align 8
  br label %148

148:                                              ; preds = %141
  br label %149

149:                                              ; preds = %148, %137, %109, %91, %59, %32, %20
  ret void
}