; Function Attrs: nounwind uwtable
define hidden void @zim_DOMNode_isEqualNode(ptr nocapture noundef readonly %0, ptr nocapture noundef writeonly %1) local_unnamed_addr #0 {
  %3 = alloca ptr, align 8
  %4 = getelementptr inbounds i8, ptr %0, i64 32
  %5 = getelementptr inbounds i8, ptr %0, i64 44
  %6 = load i32, ptr %5, align 4
  %7 = load ptr, ptr @dom_node_class_entry, align 8
  %8 = call i32 (i32, ptr, ...) @zend_parse_parameters(i32 noundef %6, ptr noundef nonnull @.str.18, ptr noundef nonnull %3, ptr noundef %7) #12
  %9 = icmp eq i32 %8, -1
  br i1 %9, label %10, label %13

10:                                               ; preds = %2
  %11 = load ptr, ptr getelementptr inbounds (%struct._zend_executor_globals, ptr @executor_globals, i64 0, i32 50), align 8
  %12 = icmp ne ptr %11, null
  call void @llvm.assume(i1 %12)
  br label %61

13:                                               ; preds = %2
  %14 = load ptr, ptr %3, align 8
  %15 = icmp eq ptr %14, null
  br i1 %15, label %16, label %18

16:                                               ; preds = %13
  %17 = getelementptr inbounds i8, ptr %1, i64 8
  store i32 2, ptr %17, align 8
  br label %61

18:                                               ; preds = %13
  %19 = load ptr, ptr %4, align 8
  %20 = getelementptr inbounds i8, ptr %19, i64 -24
  %21 = load ptr, ptr %20, align 8
  %22 = icmp eq ptr %21, null
  br i1 %22, label %23, label %31

23:                                               ; preds = %18
  %24 = getelementptr inbounds i8, ptr %19, i64 16
  %25 = load ptr, ptr %24, align 8
  %26 = getelementptr inbounds i8, ptr %25, i64 8
  %27 = load ptr, ptr %26, align 8
  %28 = getelementptr inbounds i8, ptr %27, i64 24
  call void (ptr, ptr, ...) @zend_throw_error(ptr noundef null, ptr noundef nonnull @.str.11, ptr noundef nonnull %28) #12
  %29 = load ptr, ptr getelementptr inbounds (%struct._zend_executor_globals, ptr @executor_globals, i64 0, i32 50), align 8
  %30 = icmp ne ptr %29, null
  call void @llvm.assume(i1 %30)
  br label %61

31:                                               ; preds = %18
  %32 = load ptr, ptr %21, align 8
  %33 = load ptr, ptr %14, align 8
  %34 = getelementptr inbounds i8, ptr %33, i64 -24
  %35 = load ptr, ptr %34, align 8
  %36 = icmp eq ptr %35, null
  br i1 %36, label %37, label %45

37:                                               ; preds = %31
  %38 = getelementptr inbounds i8, ptr %33, i64 16
  %39 = load ptr, ptr %38, align 8
  %40 = getelementptr inbounds i8, ptr %39, i64 8
  %41 = load ptr, ptr %40, align 8
  %42 = getelementptr inbounds i8, ptr %41, i64 24
  call void (ptr, ptr, ...) @zend_throw_error(ptr noundef null, ptr noundef nonnull @.str.11, ptr noundef nonnull %42) #12
  %43 = load ptr, ptr getelementptr inbounds (%struct._zend_executor_globals, ptr @executor_globals, i64 0, i32 50), align 8
  %44 = icmp ne ptr %43, null
  call void @llvm.assume(i1 %44)
  br label %61

45:                                               ; preds = %31
  %46 = load ptr, ptr %35, align 8
  %47 = icmp eq ptr %32, %46
  br i1 %47, label %48, label %50

48:                                               ; preds = %45
  %49 = getelementptr inbounds i8, ptr %1, i64 8
  store i32 3, ptr %49, align 8
  br label %61

50:                                               ; preds = %45
  %51 = icmp eq ptr %32, null
  %52 = icmp eq ptr %46, null
  %53 = or i1 %51, %52
  %54 = getelementptr inbounds i8, ptr %1, i64 8
  br i1 %53, label %55, label %58

55:                                               ; preds = %50
  %56 = and i1 %51, %52
  %57 = select i1 %56, i32 3, i32 2
  store i32 %57, ptr %54, align 8
  br label %61

58:                                               ; preds = %50
  %59 = call fastcc zeroext i1 @php_dom_node_is_equal_node(ptr noundef nonnull %32, ptr noundef nonnull %46)
  %60 = select i1 %59, i32 3, i32 2
  store i32 %60, ptr %54, align 8
  br label %61

61:                                               ; preds = %58, %55, %48, %37, %23, %16, %10
  ret void
}